#include <math.h>
#include <stdio.h>
#include <stdlib.h>
#include <string.h>

int main()
{
	int m,i,j;
	int sz[1000];
	int fenzi[1000];
	int fenmu[1000];
	double xulie[1000];
	double sum[1000]={0};
	fenzi[0]=2;
	fenmu[0]=1;
	for(i=1;i<1000;i++)
	{
		fenmu[i]=fenzi[i-1];
		fenzi[i]=fenzi[i-1]+fenmu[i-1];
	}
	for(i=0;i<1000;i++)
	{
		xulie[i]=(double)fenzi[i]/fenmu[i];
	}
	scanf("%d",&m);
	for(i=0;i<m;i++)
	{
		scanf("%d",&sz[i]);
	}
	for(i=0;i<m;i++)
	{
		for(j=0;j<sz[i];j++)
		{
			sum[i]+=xulie[j];
		}
	}
	for(i=0;i<m;i++)
	{
		printf("%.3lf\n",sum[i]);
	}
	return 0;
}
