; ModuleID = '29/610.c'
source_filename = "29/610.c"
target datalayout = "e-m:e-p270:32:32-p271:32:32-p272:64:64-i64:64-f80:128-n8:16:32:64-S128"
target triple = "x86_64-pc-linux-gnu"

@.str = private unnamed_addr constant [3 x i8] c"%d\00", align 1
@.str.1 = private unnamed_addr constant [7 x i8] c"%.3lf\0A\00", align 1

; Function Attrs: noinline nounwind uwtable
define dso_local i32 @main() #0 {
  %1 = alloca i32, align 4
  %2 = alloca i32, align 4
  %3 = alloca i32, align 4
  %4 = alloca i32, align 4
  %5 = alloca [1000 x i32], align 16
  %6 = alloca [1000 x i32], align 16
  %7 = alloca [1000 x i32], align 16
  %8 = alloca [1000 x double], align 16
  %9 = alloca [1000 x double], align 16
  store i32 0, i32* %1, align 4
  %10 = bitcast [1000 x double]* %9 to i8*
  call void @llvm.memset.p0i8.i64(i8* align 16 %10, i8 0, i64 8000, i1 false)
  %11 = getelementptr inbounds [1000 x i32], [1000 x i32]* %6, i64 0, i64 0
  store i32 2, i32* %11, align 16
  %12 = getelementptr inbounds [1000 x i32], [1000 x i32]* %7, i64 0, i64 0
  store i32 1, i32* %12, align 16
  store i32 1, i32* %3, align 4
  br label %13

13:                                               ; preds = %39, %0
  %14 = load i32, i32* %3, align 4
  %15 = icmp slt i32 %14, 1000
  br i1 %15, label %16, label %42

16:                                               ; preds = %13
  %17 = load i32, i32* %3, align 4
  %18 = sub nsw i32 %17, 1
  %19 = sext i32 %18 to i64
  %20 = getelementptr inbounds [1000 x i32], [1000 x i32]* %6, i64 0, i64 %19
  %21 = load i32, i32* %20, align 4
  %22 = load i32, i32* %3, align 4
  %23 = sext i32 %22 to i64
  %24 = getelementptr inbounds [1000 x i32], [1000 x i32]* %7, i64 0, i64 %23
  store i32 %21, i32* %24, align 4
  %25 = load i32, i32* %3, align 4
  %26 = sub nsw i32 %25, 1
  %27 = sext i32 %26 to i64
  %28 = getelementptr inbounds [1000 x i32], [1000 x i32]* %6, i64 0, i64 %27
  %29 = load i32, i32* %28, align 4
  %30 = load i32, i32* %3, align 4
  %31 = sub nsw i32 %30, 1
  %32 = sext i32 %31 to i64
  %33 = getelementptr inbounds [1000 x i32], [1000 x i32]* %7, i64 0, i64 %32
  %34 = load i32, i32* %33, align 4
  %35 = add nsw i32 %29, %34
  %36 = load i32, i32* %3, align 4
  %37 = sext i32 %36 to i64
  %38 = getelementptr inbounds [1000 x i32], [1000 x i32]* %6, i64 0, i64 %37
  store i32 %35, i32* %38, align 4
  br label %39

39:                                               ; preds = %16
  %40 = load i32, i32* %3, align 4
  %41 = add nsw i32 %40, 1
  store i32 %41, i32* %3, align 4
  br label %13

42:                                               ; preds = %13
  store i32 0, i32* %3, align 4
  br label %43

43:                                               ; preds = %61, %42
  %44 = load i32, i32* %3, align 4
  %45 = icmp slt i32 %44, 1000
  br i1 %45, label %46, label %64

46:                                               ; preds = %43
  %47 = load i32, i32* %3, align 4
  %48 = sext i32 %47 to i64
  %49 = getelementptr inbounds [1000 x i32], [1000 x i32]* %6, i64 0, i64 %48
  %50 = load i32, i32* %49, align 4
  %51 = sitofp i32 %50 to double
  %52 = load i32, i32* %3, align 4
  %53 = sext i32 %52 to i64
  %54 = getelementptr inbounds [1000 x i32], [1000 x i32]* %7, i64 0, i64 %53
  %55 = load i32, i32* %54, align 4
  %56 = sitofp i32 %55 to double
  %57 = fdiv double %51, %56
  %58 = load i32, i32* %3, align 4
  %59 = sext i32 %58 to i64
  %60 = getelementptr inbounds [1000 x double], [1000 x double]* %8, i64 0, i64 %59
  store double %57, double* %60, align 8
  br label %61

61:                                               ; preds = %46
  %62 = load i32, i32* %3, align 4
  %63 = add nsw i32 %62, 1
  store i32 %63, i32* %3, align 4
  br label %43

64:                                               ; preds = %43
  %65 = call i32 (i8*, ...) @__isoc99_scanf(i8* getelementptr inbounds ([3 x i8], [3 x i8]* @.str, i64 0, i64 0), i32* %2)
  store i32 0, i32* %3, align 4
  br label %66

66:                                               ; preds = %75, %64
  %67 = load i32, i32* %3, align 4
  %68 = load i32, i32* %2, align 4
  %69 = icmp slt i32 %67, %68
  br i1 %69, label %70, label %78

70:                                               ; preds = %66
  %71 = load i32, i32* %3, align 4
  %72 = sext i32 %71 to i64
  %73 = getelementptr inbounds [1000 x i32], [1000 x i32]* %5, i64 0, i64 %72
  %74 = call i32 (i8*, ...) @__isoc99_scanf(i8* getelementptr inbounds ([3 x i8], [3 x i8]* @.str, i64 0, i64 0), i32* %73)
  br label %75

75:                                               ; preds = %70
  %76 = load i32, i32* %3, align 4
  %77 = add nsw i32 %76, 1
  store i32 %77, i32* %3, align 4
  br label %66

78:                                               ; preds = %66
  store i32 0, i32* %3, align 4
  br label %79

79:                                               ; preds = %105, %78
  %80 = load i32, i32* %3, align 4
  %81 = load i32, i32* %2, align 4
  %82 = icmp slt i32 %80, %81
  br i1 %82, label %83, label %108

83:                                               ; preds = %79
  store i32 0, i32* %4, align 4
  br label %84

84:                                               ; preds = %101, %83
  %85 = load i32, i32* %4, align 4
  %86 = load i32, i32* %3, align 4
  %87 = sext i32 %86 to i64
  %88 = getelementptr inbounds [1000 x i32], [1000 x i32]* %5, i64 0, i64 %87
  %89 = load i32, i32* %88, align 4
  %90 = icmp slt i32 %85, %89
  br i1 %90, label %91, label %104

91:                                               ; preds = %84
  %92 = load i32, i32* %4, align 4
  %93 = sext i32 %92 to i64
  %94 = getelementptr inbounds [1000 x double], [1000 x double]* %8, i64 0, i64 %93
  %95 = load double, double* %94, align 8
  %96 = load i32, i32* %3, align 4
  %97 = sext i32 %96 to i64
  %98 = getelementptr inbounds [1000 x double], [1000 x double]* %9, i64 0, i64 %97
  %99 = load double, double* %98, align 8
  %100 = fadd double %99, %95
  store double %100, double* %98, align 8
  br label %101

101:                                              ; preds = %91
  %102 = load i32, i32* %4, align 4
  %103 = add nsw i32 %102, 1
  store i32 %103, i32* %4, align 4
  br label %84

104:                                              ; preds = %84
  br label %105

105:                                              ; preds = %104
  %106 = load i32, i32* %3, align 4
  %107 = add nsw i32 %106, 1
  store i32 %107, i32* %3, align 4
  br label %79

108:                                              ; preds = %79
  store i32 0, i32* %3, align 4
  br label %109

109:                                              ; preds = %119, %108
  %110 = load i32, i32* %3, align 4
  %111 = load i32, i32* %2, align 4
  %112 = icmp slt i32 %110, %111
  br i1 %112, label %113, label %122

113:                                              ; preds = %109
  %114 = load i32, i32* %3, align 4
  %115 = sext i32 %114 to i64
  %116 = getelementptr inbounds [1000 x double], [1000 x double]* %9, i64 0, i64 %115
  %117 = load double, double* %116, align 8
  %118 = call i32 (i8*, ...) @printf(i8* getelementptr inbounds ([7 x i8], [7 x i8]* @.str.1, i64 0, i64 0), double %117)
  br label %119

119:                                              ; preds = %113
  %120 = load i32, i32* %3, align 4
  %121 = add nsw i32 %120, 1
  store i32 %121, i32* %3, align 4
  br label %109

122:                                              ; preds = %109
  ret i32 0
}

; Function Attrs: argmemonly nounwind willreturn
declare void @llvm.memset.p0i8.i64(i8* nocapture writeonly, i8, i64, i1 immarg) #1

declare dso_local i32 @__isoc99_scanf(i8*, ...) #2

declare dso_local i32 @printf(i8*, ...) #2


!llvm.module.flags = !{!0}
!llvm.ident = !{!1}

!0 = !{i32 1, !"wchar_size", i32 4}
!1 = !{!"clang version 10.0.0-4ubuntu1 "}
